; Function Attrs: nounwind uwtable
define internal i32 @SpoolssEnumJobs_q(ptr noundef %0, i32 noundef %1, ptr noundef %2, ptr noundef %3, ptr noundef %4, ptr noundef %5) #0 {
  %7 = alloca i32, align 4
  %8 = getelementptr inbounds nuw i8, ptr %4, i64 72
  %9 = load ptr, ptr %8, align 8
  %10 = load i32, ptr @hf_hnd, align 4
  %11 = tail call i32 @dissect_nt_policy_hnd(ptr noundef %0, i32 noundef %1, ptr noundef %2, ptr noundef %3, ptr noundef %4, ptr noundef %5, i32 noundef %10, ptr noundef null, ptr noundef null, i32 noundef 0, i32 noundef 0) #5
  %12 = load i32, ptr @hf_enumjobs_firstjob, align 4
  %13 = tail call i32 @dissect_ndr_uint32(ptr noundef %0, i32 noundef %11, ptr noundef %2, ptr noundef %3, ptr noundef %4, ptr noundef %5, i32 noundef %12, ptr noundef null) #5
  %14 = load i32, ptr @hf_enumjobs_numjobs, align 4
  %15 = tail call i32 @dissect_ndr_uint32(ptr noundef %0, i32 noundef %13, ptr noundef %2, ptr noundef %3, ptr noundef %4, ptr noundef %5, i32 noundef %14, ptr noundef null) #5
  %16 = load i32, ptr @hf_level, align 4
  %17 = call i32 @dissect_ndr_uint32(ptr noundef %0, i32 noundef %15, ptr noundef %2, ptr noundef %3, ptr noundef %4, ptr noundef %5, i32 noundef %16, ptr noundef nonnull %7) #5
  %18 = getelementptr inbounds nuw i8, ptr %2, i64 80
  %19 = load ptr, ptr %18, align 8
  %20 = getelementptr inbounds nuw i8, ptr %19, i64 50
  %21 = load i16, ptr %20, align 2
  %22 = and i16 %21, 8
  %.not = icmp eq i16 %22, 0
  %.pre = load i32, ptr %7, align 4
  br i1 %.not, label %23, label %27

23:                                               ; preds = %6
  %24 = sext i32 %.pre to i64
  %25 = inttoptr i64 %24 to ptr
  %26 = getelementptr inbounds nuw i8, ptr %9, i64 72
  store ptr %25, ptr %26, align 8
  br label %27

27:                                               ; preds = %23, %6
  %28 = getelementptr inbounds nuw i8, ptr %2, i64 8
  %29 = load ptr, ptr %28, align 8
  call void (ptr, i32, ptr, ...) @col_append_fstr(ptr noundef %29, i32 noundef 25, ptr noundef nonnull @.str.1206, i32 noundef %.pre) #5
  %30 = getelementptr inbounds nuw i8, ptr %4, i64 88
  store ptr null, ptr %30, align 8
  %31 = call i32 @dissect_ndr_pointer(ptr noundef %0, i32 noundef %17, ptr noundef nonnull %2, ptr noundef %3, ptr noundef nonnull %4, ptr noundef %5, ptr noundef nonnull @dissect_spoolss_buffer_data, i32 noundef 2, ptr noundef nonnull @.str.435, i32 noundef -1) #5
  %32 = load i32, ptr @hf_offered, align 4
  %33 = call i32 @dissect_ndr_uint32(ptr noundef %0, i32 noundef %31, ptr noundef nonnull %2, ptr noundef %3, ptr noundef nonnull %4, ptr noundef %5, i32 noundef %32, ptr noundef null) #5
  ret i32 %33
}